; Function Attrs: nounwind uwtable
define dso_local void @logicalrep_write_begin(ptr noundef %0, ptr noundef readonly captures(none) %1) local_unnamed_addr #0 {
  tail call void @enlargeStringInfo(ptr noundef %0, i32 noundef 1) #8
  tail call void @llvm.experimental.noalias.scope.decl(metadata !4)
  %3 = load ptr, ptr %0, align 8, !alias.scope !4
  %4 = getelementptr inbounds nuw i8, ptr %0, i64 8
  %5 = load i32, ptr %4, align 8, !alias.scope !4
  %6 = sext i32 %5 to i64
  %7 = getelementptr inbounds i8, ptr %3, i64 %6
  store i8 66, ptr %7, align 1, !noalias !4
  %8 = add i32 %5, 1
  store i32 %8, ptr %4, align 8, !alias.scope !4
  %9 = getelementptr inbounds nuw i8, ptr %1, i64 32
  %10 = load i64, ptr %9, align 8
  tail call void @enlargeStringInfo(ptr noundef nonnull %0, i32 noundef 8) #8
  tail call void @llvm.experimental.noalias.scope.decl(metadata !7)
  %11 = tail call i64 @llvm.bswap.i64(i64 %10)
  %12 = load ptr, ptr %0, align 8, !alias.scope !7
  %13 = load i32, ptr %4, align 8, !alias.scope !7
  %14 = sext i32 %13 to i64
  %15 = getelementptr inbounds i8, ptr %12, i64 %14
  store i64 %11, ptr %15, align 1, !noalias !7
  %16 = add i32 %13, 8
  store i32 %16, ptr %4, align 8, !alias.scope !7
  %17 = getelementptr inbounds nuw i8, ptr %1, i64 80
  %18 = load i64, ptr %17, align 8
  tail call void @enlargeStringInfo(ptr noundef nonnull %0, i32 noundef 8) #8
  tail call void @llvm.experimental.noalias.scope.decl(metadata !10)
  %19 = tail call i64 @llvm.bswap.i64(i64 %18)
  %20 = load ptr, ptr %0, align 8, !alias.scope !10
  %21 = load i32, ptr %4, align 8, !alias.scope !10
  %22 = sext i32 %21 to i64
  %23 = getelementptr inbounds i8, ptr %20, i64 %22
  store i64 %19, ptr %23, align 1, !noalias !10
  %24 = add i32 %21, 8
  store i32 %24, ptr %4, align 8, !alias.scope !10
  %25 = getelementptr inbounds nuw i8, ptr %1, i64 4
  %26 = load i32, ptr %25, align 4
  tail call void @enlargeStringInfo(ptr noundef nonnull %0, i32 noundef 4) #8
  tail call void @llvm.experimental.noalias.scope.decl(metadata !13)
  %27 = tail call i32 @llvm.bswap.i32(i32 %26)
  %28 = load ptr, ptr %0, align 8, !alias.scope !13
  %29 = load i32, ptr %4, align 8, !alias.scope !13
  %30 = sext i32 %29 to i64
  %31 = getelementptr inbounds i8, ptr %28, i64 %30
  store i32 %27, ptr %31, align 1, !noalias !13
  %32 = add i32 %29, 4
  store i32 %32, ptr %4, align 8, !alias.scope !13
  ret void
}